target datalayout = "e-m:e-p270:32:32-p271:32:32-p272:64:64-i64:64-i128:128-f80:128-n8:16:32:64-S128"
target triple = "x86_64-pc-linux-gnu"

%struct.conf_st = type { ptr, ptr, ptr, i32, i32, ptr, ptr }

; Function Attrs: nounwind uwtable
define internal i32 @is_keytype(ptr noundef %0, i8 noundef signext %1, i16 noundef zeroext %2) #0 {
  %4 = alloca i32, align 4
  %5 = alloca ptr, align 8
  %6 = alloca i8, align 1
  %7 = alloca i16, align 2
  %8 = alloca ptr, align 8
  %9 = alloca i8, align 1
  %10 = alloca i32, align 4
  store ptr %0, ptr %5, align 8, !tbaa !8
  store i8 %1, ptr %6, align 1, !tbaa !37
  store i16 %2, ptr %7, align 2, !tbaa !49
  call void @llvm.lifetime.start.p0(i64 8, ptr %8) #9
  %11 = load ptr, ptr %5, align 8, !tbaa !8
  %12 = getelementptr inbounds nuw %struct.conf_st, ptr %11, i32 0, i32 1
  %13 = load ptr, ptr %12, align 8, !tbaa !18
  store ptr %13, ptr %8, align 8, !tbaa !51
  call void @llvm.lifetime.start.p0(i64 1, ptr %9) #9
  %14 = load i8, ptr %6, align 1, !tbaa !37
  store i8 %14, ptr %9, align 1, !tbaa !37
  %15 = load i8, ptr %9, align 1, !tbaa !37
  %16 = zext i8 %15 to i32
  %17 = icmp sgt i32 %16, 127
  br i1 %17, label %18, label %19

18:                                               ; preds = %3
  store i32 0, ptr %4, align 4
  store i32 1, ptr %10, align 4
  br label %31

19:                                               ; preds = %3
  %20 = load ptr, ptr %8, align 8, !tbaa !51
  %21 = load i8, ptr %9, align 1, !tbaa !37
  %22 = zext i8 %21 to i64
  %23 = getelementptr inbounds nuw i16, ptr %20, i64 %22
  %24 = load i16, ptr %23, align 2, !tbaa !49
  %25 = zext i16 %24 to i32
  %26 = load i16, ptr %7, align 2, !tbaa !49
  %27 = zext i16 %26 to i32
  %28 = and i32 %25, %27
  %29 = icmp ne i32 %28, 0
  %30 = select i1 %29, i32 1, i32 0
  store i32 %30, ptr %4, align 4
  store i32 1, ptr %10, align 4
  br label %31

31:                                               ; preds = %19, %18
  call void @llvm.lifetime.end.p0(i64 1, ptr %9) #9
  call void @llvm.lifetime.end.p0(i64 8, ptr %8) #9
  %32 = load i32, ptr %4, align 4
  ret i32 %32
}

; Function Attrs: nounwind uwtable
define internal ptr @eat_alpha_numeric(ptr noundef %0, ptr noundef %1) #0 {
  %3 = alloca ptr, align 8
  %4 = alloca ptr, align 8
  store ptr %0, ptr %3, align 8, !tbaa !8
  store ptr %1, ptr %4, align 8, !tbaa !29
  br label %5

5:                                                ; preds = %45, %24, %2
  %6 = load ptr, ptr %3, align 8, !tbaa !8
  %7 = load ptr, ptr %4, align 8, !tbaa !29
  %8 = load i8, ptr %7, align 1, !tbaa !37
  %9 = call i32 @is_keytype(ptr noundef %6, i8 noundef signext %8, i16 noundef zeroext 32)
  %10 = icmp ne i32 %9, 0
  br i1 %10, label %11, label %26

11:                                               ; preds = %5
  %12 = load ptr, ptr %3, align 8, !tbaa !8
  %13 = load ptr, ptr %4, align 8, !tbaa !29
  %14 = getelementptr inbounds i8, ptr %13, i64 1
  %15 = load i8, ptr %14, align 1, !tbaa !37
  %16 = call i32 @is_keytype(ptr noundef %12, i8 noundef signext %15, i16 noundef zeroext 8)
  %17 = icmp ne i32 %16, 0
  br i1 %17, label %18, label %21

18:                                               ; preds = %11
  %19 = load ptr, ptr %4, align 8, !tbaa !29
  %20 = getelementptr inbounds i8, ptr %19, i64 1
  br label %24

21:                                               ; preds = %11
  %22 = load ptr, ptr %4, align 8, !tbaa !29
  %23 = getelementptr inbounds i8, ptr %22, i64 2
  br label %24

24:                                               ; preds = %21, %18
  %25 = phi ptr [ %20, %18 ], [ %23, %21 ]
  store ptr %25, ptr %4, align 8, !tbaa !29
  br label %5

26:                                               ; preds = %5
  %27 = load ptr, ptr %3, align 8, !tbaa !8
  %28 = load ptr, ptr %4, align 8, !tbaa !29
  %29 = load i8, ptr %28, align 1, !tbaa !37
  %30 = call i32 @is_keytype(ptr noundef %27, i8 noundef signext %29, i16 noundef zeroext 775)
  %31 = icmp ne i32 %30, 0
  br i1 %31, label %45, label %32

32:                                               ; preds = %26
  %33 = load ptr, ptr %3, align 8, !tbaa !8
  %34 = getelementptr inbounds nuw %struct.conf_st, ptr %33, i32 0, i32 3
  %35 = load i32, ptr %34, align 8, !tbaa !54
  %36 = icmp ne i32 %35, 0
  br i1 %36, label %37, label %43

37:                                               ; preds = %32
  %38 = load ptr, ptr %3, align 8, !tbaa !8
  %39 = load ptr, ptr %4, align 8, !tbaa !29
  %40 = load i8, ptr %39, align 1, !tbaa !37
  %41 = call i32 @is_keytype(ptr noundef %38, i8 noundef signext %40, i16 noundef zeroext 4096)
  %42 = icmp ne i32 %41, 0
  br i1 %42, label %45, label %43

43:                                               ; preds = %37, %32
  %44 = load ptr, ptr %4, align 8, !tbaa !29
  ret ptr %44

45:                                               ; preds = %37, %26
  %46 = load ptr, ptr %4, align 8, !tbaa !29
  %47 = getelementptr inbounds nuw i8, ptr %46, i32 1
  store ptr %47, ptr %4, align 8, !tbaa !29
  br label %5
}