; Function Attrs: nofree norecurse nosync nounwind memory(read, inaccessiblemem: none) uwtable
define internal fastcc noundef ptr @eat_alpha_numeric(ptr noundef readonly captures(none) %0, ptr noundef readonly captures(ret: address, provenance) %1) unnamed_addr #9 {
  %3 = getelementptr inbounds nuw i8, ptr %0, i64 24
  %4 = load i8, ptr %1, align 1, !tbaa !23
  %5 = icmp slt i8 %4, 0
  br i1 %5, label %is_keytype.exit25.thread, label %is_keytype.exit.lr.ph

is_keytype.exit.lr.ph:                            ; preds = %2
  %6 = getelementptr inbounds nuw i8, ptr %0, i64 8
  %7 = load ptr, ptr %6, align 8, !tbaa !15
  br label %is_keytype.exit

is_keytype.exit:                                  ; preds = %is_keytype.exit.lr.ph, %.backedge
  %8 = phi i8 [ %4, %is_keytype.exit.lr.ph ], [ %23, %.backedge ]
  %.039 = phi ptr [ %1, %is_keytype.exit.lr.ph ], [ %.0.be, %.backedge ]
  %9 = zext nneg i8 %8 to i64
  %10 = getelementptr inbounds nuw i16, ptr %7, i64 %9
  %11 = load i16, ptr %10, align 2, !tbaa !26
  %12 = and i16 %11, 32
  %.not = icmp eq i16 %12, 0
  br i1 %.not, label %is_keytype.exit22, label %13

13:                                               ; preds = %is_keytype.exit
  %14 = getelementptr inbounds nuw i8, ptr %.039, i64 1
  %15 = load i8, ptr %14, align 1, !tbaa !23
  %16 = icmp slt i8 %15, 0
  br i1 %16, label %is_keytype.exit19.thread, label %is_keytype.exit19

is_keytype.exit19.thread:                         ; preds = %13
  %17 = getelementptr inbounds nuw i8, ptr %.039, i64 2
  br label %.backedge

is_keytype.exit19:                                ; preds = %13
  %18 = zext nneg i8 %15 to i64
  %19 = getelementptr inbounds nuw i16, ptr %7, i64 %18
  %20 = load i16, ptr %19, align 2, !tbaa !26
  %.fr38 = freeze i16 %20
  %21 = and i16 %.fr38, 8
  %.not16 = icmp eq i16 %21, 0
  %22 = getelementptr inbounds nuw i8, ptr %.039, i64 2
  %spec.select = select i1 %.not16, ptr %22, ptr %14
  br label %.backedge

.backedge:                                        ; preds = %is_keytype.exit19.thread, %is_keytype.exit19, %30
  %.0.be = phi ptr [ %31, %30 ], [ %17, %is_keytype.exit19.thread ], [ %spec.select, %is_keytype.exit19 ]
  %23 = load i8, ptr %.0.be, align 1, !tbaa !23
  %24 = icmp slt i8 %23, 0
  br i1 %24, label %is_keytype.exit25.thread, label %is_keytype.exit

is_keytype.exit22:                                ; preds = %is_keytype.exit
  %25 = getelementptr inbounds nuw i16, ptr %7, i64 %9
  %26 = load i16, ptr %25, align 2, !tbaa !26
  %27 = and i16 %26, 775
  %.not.i20.not = icmp eq i16 %27, 0
  br i1 %.not.i20.not, label %.thread33, label %30

.thread33:                                        ; preds = %is_keytype.exit22
  %28 = load i32, ptr %3, align 8, !tbaa !31
  %.not1434 = icmp eq i32 %28, 0
  %29 = and i16 %11, 4096
  %.not15 = icmp eq i16 %29, 0
  %or.cond = or i1 %.not1434, %.not15
  br i1 %or.cond, label %is_keytype.exit25.thread, label %30

is_keytype.exit25.thread:                         ; preds = %.thread33, %.backedge, %2
  %.0.lcssa = phi ptr [ %1, %2 ], [ %.0.be, %.backedge ], [ %.039, %.thread33 ]
  ret ptr %.0.lcssa

30:                                               ; preds = %.thread33, %is_keytype.exit22
  %31 = getelementptr inbounds nuw i8, ptr %.039, i64 1
  br label %.backedge
}